target datalayout = "e-m:e-p270:32:32-p271:32:32-p272:64:64-i64:64-i128:128-f80:128-n8:16:32:64-S128"
target triple = "x86_64-pc-linux-gnu"

%struct._packet_info = type { ptr, ptr, i32, i32, %struct.nstime_t, %struct.nstime_t, %struct.nstime_t, i8, ptr, ptr, ptr, ptr, %struct._address, %struct._address, %struct._address, %struct._address, %struct._address, %struct._address, i32, ptr, i8, [3 x i8], %struct.anon, i32, i32, i32, i32, ptr, i8, ptr, ptr, i16, i16, i32, i32, i16, i32, i32, ptr, ptr, ptr, i8, i8, i16, i16, i16, i32, i16, i16, ptr, ptr, ptr, ptr, ptr, i32, i32 }
%struct.nstime_t = type { i64, i32 }
%struct._address = type { i32, i32, ptr, ptr }
%struct.anon = type { i8, [3 x i8] }
%struct.srtp_info = type { i32, i32, i32, i32 }

@.str.86 = private unnamed_addr constant [5 x i8] c"ZRTP\00", align 1
@.str.218 = private unnamed_addr constant [16 x i8] c"Conf2ACK Packet\00", align 1

; Function Attrs: null_pointer_is_valid sspstrong uwtable
define internal void @dissect_Conf2ACK(ptr noundef %0) #0 {
  %2 = alloca ptr, align 8
  %3 = alloca ptr, align 8
  store ptr %0, ptr %2, align 8
  call void @llvm.lifetime.start.p0(i64 8, ptr %3) #6
  %4 = call ptr @wmem_file_scope()
  %5 = call noalias ptr @wmem_alloc0(ptr noundef %4, i64 noundef 16) #8
  store ptr %5, ptr %3, align 8
  %6 = load ptr, ptr %3, align 8
  %7 = getelementptr inbounds nuw %struct.srtp_info, ptr %6, i32 0, i32 0
  store i32 2, ptr %7, align 4
  %8 = load ptr, ptr %3, align 8
  %9 = getelementptr inbounds nuw %struct.srtp_info, ptr %8, i32 0, i32 1
  store i32 1, ptr %9, align 4
  %10 = load ptr, ptr %3, align 8
  %11 = getelementptr inbounds nuw %struct.srtp_info, ptr %10, i32 0, i32 2
  store i32 0, ptr %11, align 4
  %12 = load ptr, ptr %3, align 8
  %13 = getelementptr inbounds nuw %struct.srtp_info, ptr %12, i32 0, i32 3
  store i32 4, ptr %13, align 4
  %14 = load ptr, ptr %2, align 8
  %15 = load ptr, ptr %2, align 8
  %16 = getelementptr inbounds nuw %struct._packet_info, ptr %15, i32 0, i32 14
  %17 = load ptr, ptr %2, align 8
  %18 = getelementptr inbounds nuw %struct._packet_info, ptr %17, i32 0, i32 24
  %19 = load i32, ptr %18, align 4
  %20 = load ptr, ptr %2, align 8
  %21 = getelementptr inbounds nuw %struct._packet_info, ptr %20, i32 0, i32 25
  %22 = load i32, ptr %21, align 8
  %23 = load ptr, ptr %2, align 8
  %24 = getelementptr inbounds nuw %struct._packet_info, ptr %23, i32 0, i32 3
  %25 = load i32, ptr %24, align 4
  %26 = load ptr, ptr %3, align 8
  call void @srtp_add_address(ptr noundef %14, i32 noundef 3, ptr noundef %16, i32 noundef %19, i32 noundef %22, ptr noundef @.str.86, i32 noundef %25, i32 noundef 1, ptr noundef null, ptr noundef %26, ptr noundef null)
  %27 = load ptr, ptr %2, align 8
  %28 = load ptr, ptr %2, align 8
  %29 = getelementptr inbounds nuw %struct._packet_info, ptr %28, i32 0, i32 15
  %30 = load ptr, ptr %2, align 8
  %31 = getelementptr inbounds nuw %struct._packet_info, ptr %30, i32 0, i32 25
  %32 = load i32, ptr %31, align 8
  %33 = load ptr, ptr %2, align 8
  %34 = getelementptr inbounds nuw %struct._packet_info, ptr %33, i32 0, i32 24
  %35 = load i32, ptr %34, align 4
  %36 = load ptr, ptr %2, align 8
  %37 = getelementptr inbounds nuw %struct._packet_info, ptr %36, i32 0, i32 3
  %38 = load i32, ptr %37, align 4
  %39 = load ptr, ptr %3, align 8
  call void @srtp_add_address(ptr noundef %27, i32 noundef 3, ptr noundef %29, i32 noundef %32, i32 noundef %35, ptr noundef @.str.86, i32 noundef %38, i32 noundef 1, ptr noundef null, ptr noundef %39, ptr noundef null)
  %40 = load ptr, ptr %2, align 8
  %41 = load ptr, ptr %2, align 8
  %42 = getelementptr inbounds nuw %struct._packet_info, ptr %41, i32 0, i32 14
  %43 = load ptr, ptr %2, align 8
  %44 = getelementptr inbounds nuw %struct._packet_info, ptr %43, i32 0, i32 24
  %45 = load i32, ptr %44, align 4
  %46 = add i32 %45, 1
  %47 = load ptr, ptr %2, align 8
  %48 = getelementptr inbounds nuw %struct._packet_info, ptr %47, i32 0, i32 25
  %49 = load i32, ptr %48, align 8
  %50 = add i32 %49, 1
  %51 = load ptr, ptr %2, align 8
  %52 = getelementptr inbounds nuw %struct._packet_info, ptr %51, i32 0, i32 3
  %53 = load i32, ptr %52, align 4
  %54 = load ptr, ptr %3, align 8
  call void @srtcp_add_address(ptr noundef %40, ptr noundef %42, i32 noundef %46, i32 noundef %50, ptr noundef @.str.86, i32 noundef %53, ptr noundef %54)
  %55 = load ptr, ptr %2, align 8
  %56 = load ptr, ptr %2, align 8
  %57 = getelementptr inbounds nuw %struct._packet_info, ptr %56, i32 0, i32 15
  %58 = load ptr, ptr %2, align 8
  %59 = getelementptr inbounds nuw %struct._packet_info, ptr %58, i32 0, i32 25
  %60 = load i32, ptr %59, align 8
  %61 = add i32 %60, 1
  %62 = load ptr, ptr %2, align 8
  %63 = getelementptr inbounds nuw %struct._packet_info, ptr %62, i32 0, i32 24
  %64 = load i32, ptr %63, align 4
  %65 = add i32 %64, 1
  %66 = load ptr, ptr %2, align 8
  %67 = getelementptr inbounds nuw %struct._packet_info, ptr %66, i32 0, i32 3
  %68 = load i32, ptr %67, align 4
  %69 = load ptr, ptr %3, align 8
  call void @srtcp_add_address(ptr noundef %55, ptr noundef %57, i32 noundef %61, i32 noundef %65, ptr noundef @.str.86, i32 noundef %68, ptr noundef %69)
  %70 = load ptr, ptr %2, align 8
  %71 = getelementptr inbounds nuw %struct._packet_info, ptr %70, i32 0, i32 1
  %72 = load ptr, ptr %71, align 8
  call void @col_set_str(ptr noundef %72, i32 noundef 25, ptr noundef @.str.218)
  call void @llvm.lifetime.end.p0(i64 8, ptr %3) #6
  ret void
}